; Function Attrs: mustprogress nofree norecurse nounwind willreturn memory(read, inaccessiblemem: none) uwtable
define internal range(i32 0, 101) i32 @xvag_probe(ptr noundef readonly captures(none) %0) #0 {
  %2 = getelementptr inbounds nuw i8, ptr %0, i64 8
  %3 = load ptr, ptr %2, align 8, !tbaa !4
  %bcmp = tail call i32 @bcmp(ptr noundef nonnull dereferenceable(4) %3, ptr noundef nonnull dereferenceable(4) @.str.2, i64 4)
  %.not = icmp eq i32 %bcmp, 0
  br i1 %.not, label %4, label %6

4:                                                ; preds = %1
  %5 = getelementptr inbounds nuw i8, ptr %3, i64 32
  %bcmp2 = tail call i32 @bcmp(ptr noundef nonnull dereferenceable(4) %5, ptr noundef nonnull dereferenceable(4) @.str.3, i64 4)
  %.not3 = icmp eq i32 %bcmp2, 0
  %spec.select = select i1 %.not3, i32 100, i32 0
  br label %6

6:                                                ; preds = %4, %1
  %.0 = phi i32 [ 0, %1 ], [ %spec.select, %4 ]
  ret i32 %.0
}